target datalayout = "e-m:e-p270:32:32-p271:32:32-p272:64:64-i64:64-i128:128-f80:128-n8:16:32:64-S128"
target triple = "x86_64-pc-linux-gnu"

%struct.jpeg_decompress_struct = type { ptr, ptr, ptr, ptr, i32, i32, ptr, i32, i32, i32, i32, i32, i32, i32, double, i32, i32, i32, i32, i32, i32, i32, i32, i32, i32, i32, i32, i32, i32, i32, i32, i32, i32, ptr, i32, i32, i32, i32, i32, ptr, [4 x ptr], [4 x ptr], [4 x ptr], i32, ptr, i32, i32, [16 x i8], [16 x i8], [16 x i8], i32, i32, i8, i8, i8, i16, i16, i32, i8, i32, ptr, i32, i32, i32, i32, ptr, i32, [4 x ptr], i32, i32, i32, [10 x i32], i32, i32, i32, i32, i32, ptr, ptr, ptr, ptr, ptr, ptr, ptr, ptr, ptr, ptr, ptr }
%struct.jpeg_error_mgr = type { ptr, ptr, ptr, ptr, ptr, i32, %union.anon, i32, i64, ptr, i32, ptr, i32, i32 }
%union.anon = type { [8 x i32], [48 x i8] }
%struct.jpeg_memory_mgr = type { ptr, ptr, ptr, ptr, ptr, ptr, ptr, ptr, ptr, ptr, ptr, i64, i64 }
%struct.tga_dest_struct = type { %struct.djpeg_dest_struct, ptr, i32 }
%struct.djpeg_dest_struct = type { ptr, ptr, ptr, ptr, ptr, ptr, ptr, ptr, i32 }

; Function Attrs: nounwind uwtable
define dso_local ptr @jinit_write_targa(ptr noundef %0) #0 {
  %2 = alloca ptr, align 8
  %3 = alloca ptr, align 8
  store ptr %0, ptr %2, align 8, !tbaa !4
  call void @llvm.lifetime.start.p0(i64 8, ptr %3) #6
  %4 = load ptr, ptr %2, align 8, !tbaa !4
  %5 = getelementptr inbounds nuw %struct.jpeg_decompress_struct, ptr %4, i32 0, i32 43
  %6 = load i32, ptr %5, align 8, !tbaa !9
  %7 = icmp ne i32 %6, 8
  br i1 %7, label %8, label %27

8:                                                ; preds = %1
  %9 = load ptr, ptr %2, align 8, !tbaa !4
  %10 = getelementptr inbounds nuw %struct.jpeg_decompress_struct, ptr %9, i32 0, i32 0
  %11 = load ptr, ptr %10, align 8, !tbaa !33
  %12 = getelementptr inbounds nuw %struct.jpeg_error_mgr, ptr %11, i32 0, i32 5
  store i32 15, ptr %12, align 8, !tbaa !34
  %13 = load ptr, ptr %2, align 8, !tbaa !4
  %14 = getelementptr inbounds nuw %struct.jpeg_decompress_struct, ptr %13, i32 0, i32 43
  %15 = load i32, ptr %14, align 8, !tbaa !9
  %16 = load ptr, ptr %2, align 8, !tbaa !4
  %17 = getelementptr inbounds nuw %struct.jpeg_decompress_struct, ptr %16, i32 0, i32 0
  %18 = load ptr, ptr %17, align 8, !tbaa !33
  %19 = getelementptr inbounds nuw %struct.jpeg_error_mgr, ptr %18, i32 0, i32 6
  %20 = getelementptr inbounds [8 x i32], ptr %19, i64 0, i64 0
  store i32 %15, ptr %20, align 4, !tbaa !37
  %21 = load ptr, ptr %2, align 8, !tbaa !4
  %22 = getelementptr inbounds nuw %struct.jpeg_decompress_struct, ptr %21, i32 0, i32 0
  %23 = load ptr, ptr %22, align 8, !tbaa !33
  %24 = getelementptr inbounds nuw %struct.jpeg_error_mgr, ptr %23, i32 0, i32 0
  %25 = load ptr, ptr %24, align 8, !tbaa !38
  %26 = load ptr, ptr %2, align 8, !tbaa !4
  call void %25(ptr noundef %26)
  br label %27

27:                                               ; preds = %8, %1
  %28 = load ptr, ptr %2, align 8, !tbaa !4
  %29 = getelementptr inbounds nuw %struct.jpeg_decompress_struct, ptr %28, i32 0, i32 1
  %30 = load ptr, ptr %29, align 8, !tbaa !39
  %31 = getelementptr inbounds nuw %struct.jpeg_memory_mgr, ptr %30, i32 0, i32 0
  %32 = load ptr, ptr %31, align 8, !tbaa !40
  %33 = load ptr, ptr %2, align 8, !tbaa !4
  %34 = call ptr %32(ptr noundef %33, i32 noundef 1, i64 noundef 88)
  store ptr %34, ptr %3, align 8, !tbaa !42
  %35 = load ptr, ptr %3, align 8, !tbaa !42
  %36 = getelementptr inbounds nuw %struct.tga_dest_struct, ptr %35, i32 0, i32 0
  %37 = getelementptr inbounds nuw %struct.djpeg_dest_struct, ptr %36, i32 0, i32 0
  store ptr @start_output_tga, ptr %37, align 8, !tbaa !43
  %38 = load ptr, ptr %3, align 8, !tbaa !42
  %39 = getelementptr inbounds nuw %struct.tga_dest_struct, ptr %38, i32 0, i32 0
  %40 = getelementptr inbounds nuw %struct.djpeg_dest_struct, ptr %39, i32 0, i32 2
  store ptr @finish_output_tga, ptr %40, align 8, !tbaa !48
  %41 = load ptr, ptr %3, align 8, !tbaa !42
  %42 = getelementptr inbounds nuw %struct.tga_dest_struct, ptr %41, i32 0, i32 0
  %43 = getelementptr inbounds nuw %struct.djpeg_dest_struct, ptr %42, i32 0, i32 3
  store ptr @calc_buffer_dimensions_tga, ptr %43, align 8, !tbaa !49
  %44 = load ptr, ptr %2, align 8, !tbaa !4
  call void @jpeg_calc_output_dimensions(ptr noundef %44)
  %45 = load ptr, ptr %3, align 8, !tbaa !42
  %46 = getelementptr inbounds nuw %struct.tga_dest_struct, ptr %45, i32 0, i32 0
  %47 = getelementptr inbounds nuw %struct.djpeg_dest_struct, ptr %46, i32 0, i32 3
  %48 = load ptr, ptr %47, align 8, !tbaa !49
  %49 = load ptr, ptr %2, align 8, !tbaa !4
  %50 = load ptr, ptr %3, align 8, !tbaa !42
  call void %48(ptr noundef %49, ptr noundef %50)
  %51 = load ptr, ptr %2, align 8, !tbaa !4
  %52 = getelementptr inbounds nuw %struct.jpeg_decompress_struct, ptr %51, i32 0, i32 1
  %53 = load ptr, ptr %52, align 8, !tbaa !39
  %54 = getelementptr inbounds nuw %struct.jpeg_memory_mgr, ptr %53, i32 0, i32 0
  %55 = load ptr, ptr %54, align 8, !tbaa !40
  %56 = load ptr, ptr %2, align 8, !tbaa !4
  %57 = load ptr, ptr %3, align 8, !tbaa !42
  %58 = getelementptr inbounds nuw %struct.tga_dest_struct, ptr %57, i32 0, i32 2
  %59 = load i32, ptr %58, align 8, !tbaa !50
  %60 = zext i32 %59 to i64
  %61 = mul i64 %60, 1
  %62 = call ptr %55(ptr noundef %56, i32 noundef 1, i64 noundef %61)
  %63 = load ptr, ptr %3, align 8, !tbaa !42
  %64 = getelementptr inbounds nuw %struct.tga_dest_struct, ptr %63, i32 0, i32 1
  store ptr %62, ptr %64, align 8, !tbaa !51
  %65 = load ptr, ptr %2, align 8, !tbaa !4
  %66 = getelementptr inbounds nuw %struct.jpeg_decompress_struct, ptr %65, i32 0, i32 1
  %67 = load ptr, ptr %66, align 8, !tbaa !39
  %68 = getelementptr inbounds nuw %struct.jpeg_memory_mgr, ptr %67, i32 0, i32 2
  %69 = load ptr, ptr %68, align 8, !tbaa !52
  %70 = load ptr, ptr %2, align 8, !tbaa !4
  %71 = load ptr, ptr %3, align 8, !tbaa !42
  %72 = getelementptr inbounds nuw %struct.tga_dest_struct, ptr %71, i32 0, i32 2
  %73 = load i32, ptr %72, align 8, !tbaa !50
  %74 = call ptr %69(ptr noundef %70, i32 noundef 1, i32 noundef %73, i32 noundef 1)
  %75 = load ptr, ptr %3, align 8, !tbaa !42
  %76 = getelementptr inbounds nuw %struct.tga_dest_struct, ptr %75, i32 0, i32 0
  %77 = getelementptr inbounds nuw %struct.djpeg_dest_struct, ptr %76, i32 0, i32 5
  store ptr %74, ptr %77, align 8, !tbaa !53
  %78 = load ptr, ptr %3, align 8, !tbaa !42
  %79 = getelementptr inbounds nuw %struct.tga_dest_struct, ptr %78, i32 0, i32 0
  %80 = getelementptr inbounds nuw %struct.djpeg_dest_struct, ptr %79, i32 0, i32 8
  store i32 1, ptr %80, align 8, !tbaa !54
  %81 = load ptr, ptr %3, align 8, !tbaa !42
  call void @llvm.lifetime.end.p0(i64 8, ptr %3) #6
  ret ptr %81
}