; Function Attrs: nounwind uwtable
define dso_local noundef ptr @jinit_write_targa(ptr noundef %0) local_unnamed_addr #0 {
  %2 = getelementptr inbounds nuw i8, ptr %0, i64 296
  %3 = load i32, ptr %2, align 8, !tbaa !4
  %.not = icmp eq i32 %3, 8
  br i1 %.not, label %10, label %4

4:                                                ; preds = %1
  %5 = load ptr, ptr %0, align 8, !tbaa !31
  %6 = getelementptr inbounds nuw i8, ptr %5, i64 40
  store i32 15, ptr %6, align 8, !tbaa !32
  %7 = getelementptr inbounds nuw i8, ptr %5, i64 44
  store i32 %3, ptr %7, align 4, !tbaa !35
  %8 = load ptr, ptr %0, align 8, !tbaa !31
  %9 = load ptr, ptr %8, align 8, !tbaa !36
  tail call void %9(ptr noundef nonnull %0) #9
  br label %10

10:                                               ; preds = %4, %1
  %11 = getelementptr inbounds nuw i8, ptr %0, i64 8
  %12 = load ptr, ptr %11, align 8, !tbaa !37
  %13 = load ptr, ptr %12, align 8, !tbaa !38
  %14 = tail call ptr %13(ptr noundef nonnull %0, i32 noundef 1, i64 noundef 88) #9
  store ptr @start_output_tga, ptr %14, align 8, !tbaa !40
  %15 = getelementptr inbounds nuw i8, ptr %14, i64 16
  store ptr @finish_output_tga, ptr %15, align 8, !tbaa !45
  %16 = getelementptr inbounds nuw i8, ptr %14, i64 24
  store ptr @calc_buffer_dimensions_tga, ptr %16, align 8, !tbaa !46
  tail call void @jpeg_calc_output_dimensions(ptr noundef nonnull %0) #9
  %17 = load ptr, ptr %16, align 8, !tbaa !46
  tail call void %17(ptr noundef nonnull %0, ptr noundef nonnull %14) #9
  %18 = load ptr, ptr %11, align 8, !tbaa !37
  %19 = load ptr, ptr %18, align 8, !tbaa !38
  %20 = getelementptr inbounds nuw i8, ptr %14, i64 80
  %21 = load i32, ptr %20, align 8, !tbaa !47
  %22 = zext i32 %21 to i64
  %23 = tail call ptr %19(ptr noundef nonnull %0, i32 noundef 1, i64 noundef %22) #9
  %24 = getelementptr inbounds nuw i8, ptr %14, i64 72
  store ptr %23, ptr %24, align 8, !tbaa !48
  %25 = load ptr, ptr %11, align 8, !tbaa !37
  %26 = getelementptr inbounds nuw i8, ptr %25, i64 16
  %27 = load ptr, ptr %26, align 8, !tbaa !49
  %28 = load i32, ptr %20, align 8, !tbaa !47
  %29 = tail call ptr %27(ptr noundef nonnull %0, i32 noundef 1, i32 noundef %28, i32 noundef 1) #9
  %30 = getelementptr inbounds nuw i8, ptr %14, i64 40
  store ptr %29, ptr %30, align 8, !tbaa !50
  %31 = getelementptr inbounds nuw i8, ptr %14, i64 64
  store i32 1, ptr %31, align 8, !tbaa !51
  ret ptr %14
}